cnumpy.core.multiarray
_reconstruct
p0
(cnumpy
ndarray
p1
(I0
tp2
S'b'
p3
tp4
Rp5
(I1
(I3
I1
tp6
cnumpy
dtype
p7
(S'f8'
p8
I0
I1
tp9
Rp10
(I3
S'<'
p11
NNNI-1
I-1
I0
tp12
bI00
S'\xf4\xcem\x8b\xcd\xe0E\xc1\xbb\xaa\x13a\x16\xe2+\xc1:\x9fuG-tCA'
p13
tp14
b.